; Function Attrs: mustprogress uwtable
define void @_ZN8facebook5velox12VectorLoader4loadERKNS0_17SelectivityVectorEPNS0_9ValueHookEiPSt10shared_ptrINS0_10BaseVectorEE(ptr noundef nonnull align 8 dereferenceable(8) %this, ptr noundef nonnull align 8 dereferenceable(38) %rows, ptr noundef %hook, i32 noundef %resultSize, ptr noundef %result) local_unnamed_addr #0 align 2 personality ptr @__gxx_personality_v0 {
entry:
  %deltaTiming.i = alloca %"struct.facebook::velox::CpuWallTiming", align 8
  %timer = alloca %"class.facebook::velox::DeltaCpuWallTimer.0", align 8
  %ref.tmp2 = alloca %"class.std::__cxx11::basic_string", align 8
  %ref.tmp3 = alloca %"class.std::allocator", align 1
  %ref.tmp6 = alloca %"struct.facebook::velox::RuntimeCounter", align 8
  %call.i = tail call noundef i64 @_ZN8facebook5velox7process14threadCpuNanosEv()
  store i64 %call.i, ptr %timer, align 8
  %wallTimeStart_.i = getelementptr inbounds i8, ptr %timer, i64 8
  %call2.i = tail call i64 @_ZNSt6chrono3_V212steady_clock3nowEv() #21
  store i64 %call2.i, ptr %wallTimeStart_.i, align 8
  %vtable = load ptr, ptr %this, align 8
  %vfn = getelementptr inbounds i8, ptr %vtable, i64 24
  %0 = load ptr, ptr %vfn, align 8
  invoke void %0(ptr noundef nonnull align 8 dereferenceable(8) %this, ptr noundef nonnull align 8 dereferenceable(38) %rows, ptr noundef %hook, i32 noundef %resultSize, ptr noundef %result)
          to label %invoke.cont unwind label %lpad

invoke.cont:                                      ; preds = %entry
  call void @llvm.lifetime.start.p0(i64 24, ptr nonnull %deltaTiming.i)
  store i64 1, ptr %deltaTiming.i, align 8
  %wallNanos.i = getelementptr inbounds i8, ptr %deltaTiming.i, i64 8
  %call.i5 = tail call i64 @_ZNSt6chrono3_V212steady_clock3nowEv() #21
  %sub.i.i.i = sub nsw i64 %call.i5, %call2.i
  store i64 %sub.i.i.i, ptr %wallNanos.i, align 8
  %call12.i = invoke noundef i64 @_ZN8facebook5velox7process14threadCpuNanosEv()
          to label %invoke.cont11.i unwind label %terminate.lpad.i

invoke.cont11.i:                                  ; preds = %invoke.cont
  %cpuNanos.i = getelementptr inbounds i8, ptr %deltaTiming.i, i64 16
  %sub.i = sub i64 %call12.i, %call.i
  store i64 %sub.i, ptr %cpuNanos.i, align 8
  invoke fastcc void @_ZN8facebook5velox12_GLOBAL__N_113writeIOTimingERKNS0_13CpuWallTimingE(ptr noundef nonnull align 8 dereferenceable(24) %deltaTiming.i)
          to label %"_ZN8facebook5velox17DeltaCpuWallTimerIZNS0_12VectorLoader4loadERKNS0_17SelectivityVectorEPNS0_9ValueHookEiPSt10shared_ptrINS0_10BaseVectorEEE3$_0ED2Ev.exit" unwind label %terminate.lpad.i

terminate.lpad.i:                                 ; preds = %invoke.cont11.i, %invoke.cont
  %1 = landingpad { ptr, i32 }
          catch ptr null
  %2 = extractvalue { ptr, i32 } %1, 0
  tail call void @__clang_call_terminate(ptr %2) #22
  unreachable

"_ZN8facebook5velox17DeltaCpuWallTimerIZNS0_12VectorLoader4loadERKNS0_17SelectivityVectorEPNS0_9ValueHookEiPSt10shared_ptrINS0_10BaseVectorEEE3$_0ED2Ev.exit": ; preds = %invoke.cont11.i
  call void @llvm.lifetime.end.p0(i64 24, ptr nonnull %deltaTiming.i)
  %tobool.not = icmp eq ptr %hook, null
  br i1 %tobool.not, label %if.end, label %if.then

if.then:                                          ; preds = %"_ZN8facebook5velox17DeltaCpuWallTimerIZNS0_12VectorLoader4loadERKNS0_17SelectivityVectorEPNS0_9ValueHookEiPSt10shared_ptrINS0_10BaseVectorEEE3$_0ED2Ev.exit"
  call void @_ZNSaIcEC1Ev(ptr noundef nonnull align 1 dereferenceable(1) %ref.tmp3) #21
  %call.i78 = invoke noundef ptr @_ZNSt7__cxx1112basic_stringIcSt11char_traitsIcESaIcEE13_M_local_dataEv(ptr noundef nonnull align 8 dereferenceable(32) %ref.tmp2)
          to label %call.i7.noexc unwind label %lpad4

call.i7.noexc:                                    ; preds = %if.then
  invoke void @_ZNSt7__cxx1112basic_stringIcSt11char_traitsIcESaIcEE12_Alloc_hiderC1EPcRKS3_(ptr noundef nonnull align 8 dereferenceable(8) %ref.tmp2, ptr noundef %call.i78, ptr noundef nonnull align 1 dereferenceable(1) %ref.tmp3)
          to label %.noexc unwind label %lpad4

.noexc:                                           ; preds = %call.i7.noexc
  invoke void @_ZNSt7__cxx1112basic_stringIcSt11char_traitsIcESaIcEE12_M_constructIPKcEEvT_S8_St20forward_iterator_tag(ptr noundef nonnull align 8 dereferenceable(32) %ref.tmp2, ptr noundef nonnull @.str, ptr noundef nonnull getelementptr inbounds ([18 x i8], ptr @.str, i64 0, i64 17))
          to label %invoke.cont5 unwind label %lpad.i

lpad.i:                                           ; preds = %.noexc
  %3 = landingpad { ptr, i32 }
          cleanup
  call void @_ZNSaIcED2Ev(ptr noundef nonnull align 1 dereferenceable(1) %ref.tmp2) #21
  br label %ehcleanup

invoke.cont5:                                     ; preds = %.noexc
  %size_.i = getelementptr inbounds i8, ptr %rows, i64 24
  %4 = load i32, ptr %size_.i, align 8
  %conv = sext i32 %4 to i64
  store i64 %conv, ptr %ref.tmp6, align 8
  %unit.i = getelementptr inbounds i8, ptr %ref.tmp6, i64 8
  store i32 0, ptr %unit.i, align 8
  invoke void @_ZN8facebook5velox25addThreadLocalRuntimeStatERKNSt7__cxx1112basic_stringIcSt11char_traitsIcESaIcEEERKNS0_14RuntimeCounterE(ptr noundef nonnull align 8 dereferenceable(32) %ref.tmp2, ptr noundef nonnull align 8 dereferenceable(12) %ref.tmp6)
          to label %invoke.cont10 unwind label %lpad7

invoke.cont10:                                    ; preds = %invoke.cont5
  call void @_ZNSt7__cxx1112basic_stringIcSt11char_traitsIcESaIcEED1Ev(ptr noundef nonnull align 8 dereferenceable(32) %ref.tmp2) #21
  call void @_ZNSaIcED1Ev(ptr noundef nonnull align 1 dereferenceable(1) %ref.tmp3) #21
  br label %if.end

lpad:                                             ; preds = %entry
  %5 = landingpad { ptr, i32 }
          cleanup
  call fastcc void @"_ZN8facebook5velox17DeltaCpuWallTimerIZNS0_12VectorLoader4loadERKNS0_17SelectivityVectorEPNS0_9ValueHookEiPSt10shared_ptrINS0_10BaseVectorEEE3$_0ED2Ev"(ptr noundef nonnull align 8 dereferenceable(17) %timer) #21
  br label %eh.resume

lpad4:                                            ; preds = %call.i7.noexc, %if.then
  %6 = landingpad { ptr, i32 }
          cleanup
  br label %ehcleanup

lpad7:                                            ; preds = %invoke.cont5
  %7 = landingpad { ptr, i32 }
          cleanup
  call void @_ZNSt7__cxx1112basic_stringIcSt11char_traitsIcESaIcEED1Ev(ptr noundef nonnull align 8 dereferenceable(32) %ref.tmp2) #21
  br label %ehcleanup

ehcleanup:                                        ; preds = %lpad4, %lpad.i, %lpad7
  %.pn = phi { ptr, i32 } [ %7, %lpad7 ], [ %6, %lpad4 ], [ %3, %lpad.i ]
  call void @_ZNSaIcED1Ev(ptr noundef nonnull align 1 dereferenceable(1) %ref.tmp3) #21
  br label %eh.resume

if.end:                                           ; preds = %invoke.cont10, %"_ZN8facebook5velox17DeltaCpuWallTimerIZNS0_12VectorLoader4loadERKNS0_17SelectivityVectorEPNS0_9ValueHookEiPSt10shared_ptrINS0_10BaseVectorEEE3$_0ED2Ev.exit"
  ret void

eh.resume:                                        ; preds = %ehcleanup, %lpad
  %.pn.pn = phi { ptr, i32 } [ %.pn, %ehcleanup ], [ %5, %lpad ]
  resume { ptr, i32 } %.pn.pn
}